target datalayout = "e-m:e-p270:32:32-p271:32:32-p272:64:64-i64:64-i128:128-f80:128-n8:16:32:64-S128"
target triple = "x86_64-unknown-linux-gnu"

%class.btHashedOverlappingPairCache = type { %class.btOverlappingPairCache, %class.btAlignedObjectArray, ptr, %class.btAlignedObjectArray.0, %class.btAlignedObjectArray.0, ptr }
%class.btOverlappingPairCache = type { %class.btOverlappingPairCallback }
%class.btOverlappingPairCallback = type { ptr }
%class.btAlignedObjectArray = type <{ %class.btAlignedAllocator, [3 x i8], i32, i32, [4 x i8], ptr, i8, [7 x i8] }>
%class.btAlignedAllocator = type { i8 }
%class.btAlignedObjectArray.0 = type <{ %class.btAlignedAllocator.1, [3 x i8], i32, i32, [4 x i8], ptr, i8, [7 x i8] }>
%class.btAlignedAllocator.1 = type { i8 }
%struct.btBroadphasePair = type { ptr, ptr, ptr, %union.anon.4 }
%union.anon.4 = type { ptr }
%struct.btBroadphaseProxy = type <{ ptr, i32, i32, i32, %class.btVector3, %class.btVector3, [4 x i8] }>
%class.btVector3 = type { [4 x float] }

; Function Attrs: mustprogress nounwind uwtable
define linkonce_odr dso_local noundef zeroext i1 @_ZN28btHashedOverlappingPairCache10equalsPairERK16btBroadphasePairii(ptr noundef nonnull align 8 dereferenceable(120) %this, ptr noundef nonnull align 8 dereferenceable(32) %pair, i32 noundef %proxyId1, i32 noundef %proxyId2) #1 comdat align 2 {
entry:
  %this.addr = alloca ptr, align 8
  %pair.addr = alloca ptr, align 8
  %proxyId1.addr = alloca i32, align 4
  %proxyId2.addr = alloca i32, align 4
  store ptr %this, ptr %this.addr, align 8
  store ptr %pair, ptr %pair.addr, align 8
  store i32 %proxyId1, ptr %proxyId1.addr, align 4
  store i32 %proxyId2, ptr %proxyId2.addr, align 4
  %0 = load ptr, ptr %pair.addr, align 8
  %m_pProxy0 = getelementptr inbounds %struct.btBroadphasePair, ptr %0, i32 0, i32 0
  %1 = load ptr, ptr %m_pProxy0, align 8
  %call = call noundef i32 @_ZNK17btBroadphaseProxy6getUidEv(ptr noundef nonnull align 8 dereferenceable(52) %1)
  %2 = load i32, ptr %proxyId1.addr, align 4
  %cmp = icmp eq i32 %call, %2
  br i1 %cmp, label %land.rhs, label %land.end

land.rhs:                                         ; preds = %entry
  %3 = load ptr, ptr %pair.addr, align 8
  %m_pProxy1 = getelementptr inbounds %struct.btBroadphasePair, ptr %3, i32 0, i32 1
  %4 = load ptr, ptr %m_pProxy1, align 8
  %call2 = call noundef i32 @_ZNK17btBroadphaseProxy6getUidEv(ptr noundef nonnull align 8 dereferenceable(52) %4)
  %5 = load i32, ptr %proxyId2.addr, align 4
  %cmp3 = icmp eq i32 %call2, %5
  br label %land.end

land.end:                                         ; preds = %land.rhs, %entry
  %6 = phi i1 [ false, %entry ], [ %cmp3, %land.rhs ]
  ret i1 %6
}

; Function Attrs: mustprogress nounwind uwtable
define linkonce_odr dso_local noundef nonnull align 8 dereferenceable(32) ptr @_ZN20btAlignedObjectArrayI16btBroadphasePairEixEi(ptr noundef nonnull align 8 dereferenceable(25) %this, i32 noundef %n) #1 comdat align 2 {
entry:
  %this.addr = alloca ptr, align 8
  %n.addr = alloca i32, align 4
  store ptr %this, ptr %this.addr, align 8
  store i32 %n, ptr %n.addr, align 4
  %this1 = load ptr, ptr %this.addr, align 8
  %m_data = getelementptr inbounds %class.btAlignedObjectArray, ptr %this1, i32 0, i32 5
  %0 = load ptr, ptr %m_data, align 8
  %1 = load i32, ptr %n.addr, align 4
  %idxprom = sext i32 %1 to i64
  %arrayidx = getelementptr inbounds %struct.btBroadphasePair, ptr %0, i64 %idxprom
  ret ptr %arrayidx
}

; Function Attrs: mustprogress nounwind uwtable
define linkonce_odr dso_local noundef nonnull align 4 dereferenceable(4) ptr @_ZN20btAlignedObjectArrayIiEixEi(ptr noundef nonnull align 8 dereferenceable(25) %this, i32 noundef %n) #1 comdat align 2 {
entry:
  %this.addr = alloca ptr, align 8
  %n.addr = alloca i32, align 4
  store ptr %this, ptr %this.addr, align 8
  store i32 %n, ptr %n.addr, align 4
  %this1 = load ptr, ptr %this.addr, align 8
  %m_data = getelementptr inbounds %class.btAlignedObjectArray.0, ptr %this1, i32 0, i32 5
  %0 = load ptr, ptr %m_data, align 8
  %1 = load i32, ptr %n.addr, align 4
  %idxprom = sext i32 %1 to i64
  %arrayidx = getelementptr inbounds i32, ptr %0, i64 %idxprom
  ret ptr %arrayidx
}

; Function Attrs: mustprogress nounwind uwtable
define linkonce_odr dso_local noundef i32 @_ZNK20btAlignedObjectArrayIiE4sizeEv(ptr noundef nonnull align 8 dereferenceable(25) %this) #1 comdat align 2 {
entry:
  %this.addr = alloca ptr, align 8
  store ptr %this, ptr %this.addr, align 8
  %this1 = load ptr, ptr %this.addr, align 8
  %m_size = getelementptr inbounds %class.btAlignedObjectArray.0, ptr %this1, i32 0, i32 2
  %0 = load i32, ptr %m_size, align 4
  ret i32 %0
}

; Function Attrs: mustprogress nounwind uwtable
define linkonce_odr dso_local noundef i32 @_ZNK20btAlignedObjectArrayI16btBroadphasePairE8capacityEv(ptr noundef nonnull align 8 dereferenceable(25) %this) #1 comdat align 2 {
entry:
  %this.addr = alloca ptr, align 8
  store ptr %this, ptr %this.addr, align 8
  %this1 = load ptr, ptr %this.addr, align 8
  %m_capacity = getelementptr inbounds %class.btAlignedObjectArray, ptr %this1, i32 0, i32 3
  %0 = load i32, ptr %m_capacity, align 8
  ret i32 %0
}

; Function Attrs: mustprogress nounwind uwtable
define linkonce_odr dso_local noundef i32 @_ZN28btHashedOverlappingPairCache7getHashEjj(ptr noundef nonnull align 8 dereferenceable(120) %this, i32 noundef %proxyId1, i32 noundef %proxyId2) #1 comdat align 2 {
entry:
  %this.addr = alloca ptr, align 8
  %proxyId1.addr = alloca i32, align 4
  %proxyId2.addr = alloca i32, align 4
  %key = alloca i32, align 4
  store ptr %this, ptr %this.addr, align 8
  store i32 %proxyId1, ptr %proxyId1.addr, align 4
  store i32 %proxyId2, ptr %proxyId2.addr, align 4
  %0 = load i32, ptr %proxyId1.addr, align 4
  %1 = load i32, ptr %proxyId2.addr, align 4
  %shl = shl i32 %1, 16
  %or = or i32 %0, %shl
  store i32 %or, ptr %key, align 4
  %2 = load i32, ptr %key, align 4
  %shl2 = shl i32 %2, 15
  %not = xor i32 %shl2, -1
  %3 = load i32, ptr %key, align 4
  %add = add i32 %3, %not
  store i32 %add, ptr %key, align 4
  %4 = load i32, ptr %key, align 4
  %shr = lshr i32 %4, 10
  %5 = load i32, ptr %key, align 4
  %xor = xor i32 %5, %shr
  store i32 %xor, ptr %key, align 4
  %6 = load i32, ptr %key, align 4
  %shl3 = shl i32 %6, 3
  %7 = load i32, ptr %key, align 4
  %add4 = add i32 %7, %shl3
  store i32 %add4, ptr %key, align 4
  %8 = load i32, ptr %key, align 4
  %shr5 = lshr i32 %8, 6
  %9 = load i32, ptr %key, align 4
  %xor6 = xor i32 %9, %shr5
  store i32 %xor6, ptr %key, align 4
  %10 = load i32, ptr %key, align 4
  %shl7 = shl i32 %10, 11
  %not8 = xor i32 %shl7, -1
  %11 = load i32, ptr %key, align 4
  %add9 = add i32 %11, %not8
  store i32 %add9, ptr %key, align 4
  %12 = load i32, ptr %key, align 4
  %shr10 = lshr i32 %12, 16
  %13 = load i32, ptr %key, align 4
  %xor11 = xor i32 %13, %shr10
  store i32 %xor11, ptr %key, align 4
  %14 = load i32, ptr %key, align 4
  ret i32 %14
}

; Function Attrs: mustprogress nounwind uwtable
define linkonce_odr dso_local noundef i32 @_ZNK17btBroadphaseProxy6getUidEv(ptr noundef nonnull align 8 dereferenceable(52) %this) #1 comdat align 2 {
entry:
  %this.addr = alloca ptr, align 8
  store ptr %this, ptr %this.addr, align 8
  %this1 = load ptr, ptr %this.addr, align 8
  %m_uniqueId = getelementptr inbounds %struct.btBroadphaseProxy, ptr %this1, i32 0, i32 3
  %0 = load i32, ptr %m_uniqueId, align 8
  ret i32 %0
}

; Function Attrs: mustprogress nounwind uwtable
define linkonce_odr dso_local void @_Z6btSwapIP17btBroadphaseProxyEvRT_S3_(ptr noundef nonnull align 8 dereferenceable(8) %a, ptr noundef nonnull align 8 dereferenceable(8) %b) #1 comdat {
entry:
  %a.addr = alloca ptr, align 8
  %b.addr = alloca ptr, align 8
  %tmp = alloca ptr, align 8
  store ptr %a, ptr %a.addr, align 8
  store ptr %b, ptr %b.addr, align 8
  %0 = load ptr, ptr %a.addr, align 8
  %1 = load ptr, ptr %0, align 8
  store ptr %1, ptr %tmp, align 8
  %2 = load ptr, ptr %b.addr, align 8
  %3 = load ptr, ptr %2, align 8
  %4 = load ptr, ptr %a.addr, align 8
  store ptr %3, ptr %4, align 8
  %5 = load ptr, ptr %tmp, align 8
  %6 = load ptr, ptr %b.addr, align 8
  store ptr %5, ptr %6, align 8
  ret void
}

; Function Attrs: mustprogress uwtable
define dso_local noundef ptr @_ZN28btHashedOverlappingPairCache8findPairEP17btBroadphaseProxyS1_(ptr noundef nonnull align 8 dereferenceable(120) %this, ptr noundef %proxy0, ptr noundef %proxy1) unnamed_addr #2 align 2 {
entry:
  %retval = alloca ptr, align 8
  %this.addr = alloca ptr, align 8
  %proxy0.addr = alloca ptr, align 8
  %proxy1.addr = alloca ptr, align 8
  %proxyId1 = alloca i32, align 4
  %proxyId2 = alloca i32, align 4
  %hash = alloca i32, align 4
  %index = alloca i32, align 4
  store ptr %this, ptr %this.addr, align 8
  store ptr %proxy0, ptr %proxy0.addr, align 8
  store ptr %proxy1, ptr %proxy1.addr, align 8
  %this1 = load ptr, ptr %this.addr, align 8
  %0 = load ptr, ptr %proxy0.addr, align 8
  %m_uniqueId = getelementptr inbounds %struct.btBroadphaseProxy, ptr %0, i32 0, i32 3
  %1 = load i32, ptr %m_uniqueId, align 8
  %2 = load ptr, ptr %proxy1.addr, align 8
  %m_uniqueId2 = getelementptr inbounds %struct.btBroadphaseProxy, ptr %2, i32 0, i32 3
  %3 = load i32, ptr %m_uniqueId2, align 8
  %cmp = icmp sgt i32 %1, %3
  br i1 %cmp, label %if.then, label %if.end

if.then:                                          ; preds = %entry
  call void @_Z6btSwapIP17btBroadphaseProxyEvRT_S3_(ptr noundef nonnull align 8 dereferenceable(8) %proxy0.addr, ptr noundef nonnull align 8 dereferenceable(8) %proxy1.addr)
  br label %if.end

if.end:                                           ; preds = %if.then, %entry
  %4 = load ptr, ptr %proxy0.addr, align 8
  %call = call noundef i32 @_ZNK17btBroadphaseProxy6getUidEv(ptr noundef nonnull align 8 dereferenceable(52) %4)
  store i32 %call, ptr %proxyId1, align 4
  %5 = load ptr, ptr %proxy1.addr, align 8
  %call3 = call noundef i32 @_ZNK17btBroadphaseProxy6getUidEv(ptr noundef nonnull align 8 dereferenceable(52) %5)
  store i32 %call3, ptr %proxyId2, align 4
  %6 = load i32, ptr %proxyId1, align 4
  %7 = load i32, ptr %proxyId2, align 4
  %call4 = call noundef i32 @_ZN28btHashedOverlappingPairCache7getHashEjj(ptr noundef nonnull align 8 dereferenceable(120) %this1, i32 noundef %6, i32 noundef %7)
  %m_overlappingPairArray = getelementptr inbounds %class.btHashedOverlappingPairCache, ptr %this1, i32 0, i32 1
  %call5 = call noundef i32 @_ZNK20btAlignedObjectArrayI16btBroadphasePairE8capacityEv(ptr noundef nonnull align 8 dereferenceable(25) %m_overlappingPairArray)
  %sub = sub nsw i32 %call5, 1
  %and = and i32 %call4, %sub
  store i32 %and, ptr %hash, align 4
  %8 = load i32, ptr %hash, align 4
  %m_hashTable = getelementptr inbounds %class.btHashedOverlappingPairCache, ptr %this1, i32 0, i32 3
  %call6 = call noundef i32 @_ZNK20btAlignedObjectArrayIiE4sizeEv(ptr noundef nonnull align 8 dereferenceable(25) %m_hashTable)
  %cmp7 = icmp sge i32 %8, %call6
  br i1 %cmp7, label %if.then8, label %if.end9

if.then8:                                         ; preds = %if.end
  store ptr null, ptr %retval, align 8
  br label %return

if.end9:                                          ; preds = %if.end
  %m_hashTable10 = getelementptr inbounds %class.btHashedOverlappingPairCache, ptr %this1, i32 0, i32 3
  %9 = load i32, ptr %hash, align 4
  %call11 = call noundef nonnull align 4 dereferenceable(4) ptr @_ZN20btAlignedObjectArrayIiEixEi(ptr noundef nonnull align 8 dereferenceable(25) %m_hashTable10, i32 noundef %9)
  %10 = load i32, ptr %call11, align 4
  store i32 %10, ptr %index, align 4
  br label %while.cond

while.cond:                                       ; preds = %while.body, %if.end9
  %11 = load i32, ptr %index, align 4
  %cmp12 = icmp ne i32 %11, -1
  br i1 %cmp12, label %land.rhs, label %land.end

land.rhs:                                         ; preds = %while.cond
  %m_overlappingPairArray13 = getelementptr inbounds %class.btHashedOverlappingPairCache, ptr %this1, i32 0, i32 1
  %12 = load i32, ptr %index, align 4
  %call14 = call noundef nonnull align 8 dereferenceable(32) ptr @_ZN20btAlignedObjectArrayI16btBroadphasePairEixEi(ptr noundef nonnull align 8 dereferenceable(25) %m_overlappingPairArray13, i32 noundef %12)
  %13 = load i32, ptr %proxyId1, align 4
  %14 = load i32, ptr %proxyId2, align 4
  %call15 = call noundef zeroext i1 @_ZN28btHashedOverlappingPairCache10equalsPairERK16btBroadphasePairii(ptr noundef nonnull align 8 dereferenceable(120) %this1, ptr noundef nonnull align 8 dereferenceable(32) %call14, i32 noundef %13, i32 noundef %14)
  %conv = zext i1 %call15 to i32
  %cmp16 = icmp eq i32 %conv, 0
  br label %land.end

land.end:                                         ; preds = %land.rhs, %while.cond
  %15 = phi i1 [ false, %while.cond ], [ %cmp16, %land.rhs ]
  br i1 %15, label %while.body, label %while.end

while.body:                                       ; preds = %land.end
  %m_next = getelementptr inbounds %class.btHashedOverlappingPairCache, ptr %this1, i32 0, i32 4
  %16 = load i32, ptr %index, align 4
  %call17 = call noundef nonnull align 4 dereferenceable(4) ptr @_ZN20btAlignedObjectArrayIiEixEi(ptr noundef nonnull align 8 dereferenceable(25) %m_next, i32 noundef %16)
  %17 = load i32, ptr %call17, align 4
  store i32 %17, ptr %index, align 4
  br label %while.cond, !llvm.loop !9

while.end:                                        ; preds = %land.end
  %18 = load i32, ptr %index, align 4
  %cmp18 = icmp eq i32 %18, -1
  br i1 %cmp18, label %if.then19, label %if.end20

if.then19:                                        ; preds = %while.end
  store ptr null, ptr %retval, align 8
  br label %return

if.end20:                                         ; preds = %while.end
  %m_overlappingPairArray21 = getelementptr inbounds %class.btHashedOverlappingPairCache, ptr %this1, i32 0, i32 1
  %19 = load i32, ptr %index, align 4
  %call22 = call noundef nonnull align 8 dereferenceable(32) ptr @_ZN20btAlignedObjectArrayI16btBroadphasePairEixEi(ptr noundef nonnull align 8 dereferenceable(25) %m_overlappingPairArray21, i32 noundef %19)
  store ptr %call22, ptr %retval, align 8
  br label %return

return:                                           ; preds = %if.end20, %if.then19, %if.then8
  %20 = load ptr, ptr %retval, align 8
  ret ptr %20
}