; Function Attrs: mustprogress nofree norecurse nosync nounwind willreturn memory(read, inaccessiblemem: none) uwtable
define dso_local noundef ptr @_ZN28btHashedOverlappingPairCache8findPairEP17btBroadphaseProxyS1_(ptr nocapture noundef nonnull readonly align 8 dereferenceable(120) %this, ptr nocapture noundef readonly %proxy0, ptr nocapture noundef readonly %proxy1) unnamed_addr #3 align 2 {
entry:
  %m_uniqueId = getelementptr inbounds i8, ptr %proxy0, i64 16
  %0 = load i32, ptr %m_uniqueId, align 8
  %m_uniqueId2 = getelementptr inbounds i8, ptr %proxy1, i64 16
  %1 = load i32, ptr %m_uniqueId2, align 8
  %cmp = icmp sgt i32 %0, %1
  %spec.select = select i1 %cmp, ptr %proxy1, ptr %proxy0
  %spec.select20 = select i1 %cmp, ptr %proxy0, ptr %proxy1
  %m_uniqueId.i = getelementptr inbounds i8, ptr %spec.select, i64 16
  %2 = load i32, ptr %m_uniqueId.i, align 8
  %m_uniqueId.i8 = getelementptr inbounds i8, ptr %spec.select20, i64 16
  %3 = load i32, ptr %m_uniqueId.i8, align 8
  %shl.i = shl i32 %3, 16
  %or.i = or i32 %shl.i, %2
  %shl2.i = shl i32 %or.i, 15
  %not.i = xor i32 %shl2.i, -1
  %add.i = add i32 %or.i, %not.i
  %shr.i = lshr i32 %add.i, 10
  %xor.i = xor i32 %shr.i, %add.i
  %add4.i = mul i32 %xor.i, 9
  %shr5.i = lshr i32 %add4.i, 6
  %xor6.i = xor i32 %shr5.i, %add4.i
  %shl7.i = shl i32 %xor6.i, 11
  %not8.i = xor i32 %shl7.i, -1
  %add9.i = add i32 %xor6.i, %not8.i
  %shr10.i = lshr i32 %add9.i, 16
  %xor11.i = xor i32 %shr10.i, %add9.i
  %m_capacity.i = getelementptr inbounds i8, ptr %this, i64 16
  %4 = load i32, ptr %m_capacity.i, align 8
  %sub = add nsw i32 %4, -1
  %and = and i32 %xor11.i, %sub
  %m_size.i = getelementptr inbounds i8, ptr %this, i64 52
  %5 = load i32, ptr %m_size.i, align 4
  %cmp7.not = icmp slt i32 %and, %5
  br i1 %cmp7.not, label %if.end9, label %return

if.end9:                                          ; preds = %entry
  %m_data.i = getelementptr inbounds i8, ptr %this, i64 64
  %6 = load ptr, ptr %m_data.i, align 8
  %idxprom.i = sext i32 %and to i64
  %arrayidx.i = getelementptr inbounds i32, ptr %6, i64 %idxprom.i
  %index.021 = load i32, ptr %arrayidx.i, align 4
  %cond22 = icmp eq i32 %index.021, -1
  br i1 %cond22, label %return, label %land.rhs.lr.ph

land.rhs.lr.ph:                                   ; preds = %if.end9
  %m_data.i9 = getelementptr inbounds i8, ptr %this, i64 24
  %7 = load ptr, ptr %m_data.i9, align 8
  %m_data.i12 = getelementptr inbounds i8, ptr %this, i64 96
  %8 = load ptr, ptr %m_data.i12, align 8
  br label %land.rhs

land.rhs:                                         ; preds = %land.rhs.lr.ph, %while.body
  %index.023 = phi i32 [ %index.021, %land.rhs.lr.ph ], [ %index.0, %while.body ]
  %idxprom.i10 = sext i32 %index.023 to i64
  %arrayidx.i11 = getelementptr inbounds %struct.btBroadphasePair, ptr %7, i64 %idxprom.i10
  %9 = load ptr, ptr %arrayidx.i11, align 8
  %m_uniqueId.i.i = getelementptr inbounds i8, ptr %9, i64 16
  %10 = load i32, ptr %m_uniqueId.i.i, align 8
  %cmp.i = icmp eq i32 %10, %2
  br i1 %cmp.i, label %_ZN28btHashedOverlappingPairCache10equalsPairERK16btBroadphasePairii.exit, label %while.body

_ZN28btHashedOverlappingPairCache10equalsPairERK16btBroadphasePairii.exit: ; preds = %land.rhs
  %m_pProxy1.i = getelementptr inbounds i8, ptr %arrayidx.i11, i64 8
  %11 = load ptr, ptr %m_pProxy1.i, align 8
  %m_uniqueId.i2.i = getelementptr inbounds i8, ptr %11, i64 16
  %12 = load i32, ptr %m_uniqueId.i2.i, align 8
  %cmp3.i = icmp eq i32 %12, %3
  br i1 %cmp3.i, label %return, label %while.body

while.body:                                       ; preds = %land.rhs, %_ZN28btHashedOverlappingPairCache10equalsPairERK16btBroadphasePairii.exit
  %arrayidx.i14 = getelementptr inbounds i32, ptr %8, i64 %idxprom.i10
  %index.0 = load i32, ptr %arrayidx.i14, align 4
  %cond = icmp eq i32 %index.0, -1
  br i1 %cond, label %return, label %land.rhs, !llvm.loop !12

return:                                           ; preds = %while.body, %_ZN28btHashedOverlappingPairCache10equalsPairERK16btBroadphasePairii.exit, %if.end9, %entry
  %retval.0 = phi ptr [ null, %entry ], [ null, %if.end9 ], [ null, %while.body ], [ %arrayidx.i11, %_ZN28btHashedOverlappingPairCache10equalsPairERK16btBroadphasePairii.exit ]
  ret ptr %retval.0
}